target datalayout = "e-m:e-p270:32:32-p271:32:32-p272:64:64-i64:64-i128:128-f80:128-n8:16:32:64-S128"
target triple = "x86_64-pc-linux-gnu"

@hf_usb_hid_value = internal global i32 0, align 4
@hf_usb_hid_index = internal global i32 0, align 4
@hf_usb_hid_length = internal global i32 0, align 4

; Function Attrs: null_pointer_is_valid sspstrong uwtable
define internal void @dissect_usb_hid_get_protocol(ptr noundef %0, ptr noundef %1, ptr noundef %2, i32 noundef %3, i1 noundef zeroext %4, ptr noundef %5) #0 {
  %7 = alloca ptr, align 8
  %8 = alloca ptr, align 8
  %9 = alloca ptr, align 8
  %10 = alloca i32, align 4
  %11 = alloca i8, align 1
  %12 = alloca ptr, align 8
  store ptr %0, ptr %7, align 8
  store ptr %1, ptr %8, align 8
  store ptr %2, ptr %9, align 8
  store i32 %3, ptr %10, align 4
  %13 = zext i1 %4 to i8
  store i8 %13, ptr %11, align 1
  store ptr %5, ptr %12, align 8
  %14 = load i8, ptr %11, align 1, !range !8, !noundef !9
  %15 = trunc i8 %14 to i1
  br i1 %15, label %17, label %16

16:                                               ; preds = %6
  br label %37

17:                                               ; preds = %6
  %18 = load ptr, ptr %8, align 8
  %19 = load i32, ptr @hf_usb_hid_value, align 4
  %20 = load ptr, ptr %9, align 8
  %21 = load i32, ptr %10, align 4
  %22 = call ptr @proto_tree_add_item(ptr noundef %18, i32 noundef %19, ptr noundef %20, i32 noundef %21, i32 noundef 2, i32 noundef -2147483648)
  %23 = load i32, ptr %10, align 4
  %24 = add i32 %23, 2
  store i32 %24, ptr %10, align 4
  %25 = load ptr, ptr %8, align 8
  %26 = load i32, ptr @hf_usb_hid_index, align 4
  %27 = load ptr, ptr %9, align 8
  %28 = load i32, ptr %10, align 4
  %29 = call ptr @proto_tree_add_item(ptr noundef %25, i32 noundef %26, ptr noundef %27, i32 noundef %28, i32 noundef 2, i32 noundef -2147483648)
  %30 = load i32, ptr %10, align 4
  %31 = add i32 %30, 2
  store i32 %31, ptr %10, align 4
  %32 = load ptr, ptr %8, align 8
  %33 = load i32, ptr @hf_usb_hid_length, align 4
  %34 = load ptr, ptr %9, align 8
  %35 = load i32, ptr %10, align 4
  %36 = call ptr @proto_tree_add_item(ptr noundef %32, i32 noundef %33, ptr noundef %34, i32 noundef %35, i32 noundef 2, i32 noundef -2147483648)
  br label %37

37:                                               ; preds = %17, %16
  ret void
}