; Function Attrs: null_pointer_is_valid sspstrong uwtable
define internal void @dissect_usb_hid_get_protocol(ptr readnone captures(none) %0, ptr noundef %1, ptr noundef %2, i32 noundef %3, i1 noundef zeroext %4, ptr readnone captures(none) %5) #0 {
  br i1 %4, label %7, label %16

7:                                                ; preds = %6
  %8 = load i32, ptr @hf_usb_hid_value, align 4
  %9 = tail call ptr @proto_tree_add_item(ptr noundef %1, i32 noundef %8, ptr noundef %2, i32 noundef %3, i32 noundef 2, i32 noundef -2147483648)
  %10 = add i32 %3, 2
  %11 = load i32, ptr @hf_usb_hid_index, align 4
  %12 = tail call ptr @proto_tree_add_item(ptr noundef %1, i32 noundef %11, ptr noundef %2, i32 noundef %10, i32 noundef 2, i32 noundef -2147483648)
  %13 = add i32 %3, 4
  %14 = load i32, ptr @hf_usb_hid_length, align 4
  %15 = tail call ptr @proto_tree_add_item(ptr noundef %1, i32 noundef %14, ptr noundef %2, i32 noundef %13, i32 noundef 2, i32 noundef -2147483648)
  br label %16

16:                                               ; preds = %6, %7
  ret void
}